target datalayout = "e-m:e-p270:32:32-p271:32:32-p272:64:64-i64:64-i128:128-f80:128-n8:16:32:64-S128"
target triple = "x86_64-pc-linux-gnu"

%struct.jpeg_compress_struct = type { ptr, ptr, ptr, ptr, i32, i32, ptr, i32, i32, i32, i32, double, i32, i32, i32, ptr, [4 x ptr], [4 x ptr], [4 x ptr], [16 x i8], [16 x i8], [16 x i8], i32, ptr, i32, i32, i32, i32, i32, i32, i32, i32, i32, i8, i8, i8, i16, i16, i32, i32, i32, i32, i32, i32, i32, [4 x ptr], i32, i32, i32, [10 x i32], i32, i32, i32, i32, ptr, ptr, ptr, ptr, ptr, ptr, ptr, ptr, ptr, ptr, i32 }

; Function Attrs: nounwind uwtable
define internal void @simple_downscale(ptr noundef %0, ptr noundef %1, ptr noundef %2, i32 noundef %3) #0 {
  %5 = alloca ptr, align 8
  %6 = alloca ptr, align 8
  %7 = alloca ptr, align 8
  %8 = alloca i32, align 4
  store ptr %0, ptr %5, align 8, !tbaa !3
  store ptr %1, ptr %6, align 8, !tbaa !49
  store ptr %2, ptr %7, align 8, !tbaa !49
  store i32 %3, ptr %8, align 4, !tbaa !45
  br label %9

9:                                                ; preds = %21, %4
  %10 = load ptr, ptr %6, align 8, !tbaa !49
  %11 = getelementptr inbounds nuw i8, ptr %10, i32 1
  store ptr %11, ptr %6, align 8, !tbaa !49
  %12 = load i8, ptr %10, align 1, !tbaa !31
  %13 = zext i8 %12 to i32
  %14 = load ptr, ptr %5, align 8, !tbaa !3
  %15 = getelementptr inbounds nuw %struct.jpeg_compress_struct, ptr %14, i32 0, i32 53
  %16 = load i32, ptr %15, align 8, !tbaa !41
  %17 = ashr i32 %13, %16
  %18 = trunc i32 %17 to i8
  %19 = load ptr, ptr %7, align 8, !tbaa !49
  %20 = getelementptr inbounds nuw i8, ptr %19, i32 1
  store ptr %20, ptr %7, align 8, !tbaa !49
  store i8 %18, ptr %19, align 1, !tbaa !31
  br label %21

21:                                               ; preds = %9
  %22 = load i32, ptr %8, align 4, !tbaa !45
  %23 = add i32 %22, -1
  store i32 %23, ptr %8, align 4, !tbaa !45
  %24 = icmp ne i32 %23, 0
  br i1 %24, label %9, label %25, !llvm.loop !51

25:                                               ; preds = %21
  ret void
}