; Function Attrs: nofree norecurse nosync nounwind memory(argmem: readwrite) uwtable
define internal void @simple_downscale(ptr noundef readonly captures(none) %0, ptr noundef readonly captures(none) %1, ptr noundef writeonly captures(none) %2, i32 noundef %3) #1 {
  %5 = getelementptr inbounds nuw i8, ptr %0, i64 424
  br label %6

6:                                                ; preds = %6, %4
  %.04 = phi ptr [ %1, %4 ], [ %7, %6 ]
  %.03 = phi ptr [ %2, %4 ], [ %13, %6 ]
  %.0 = phi i32 [ %3, %4 ], [ %14, %6 ]
  %7 = getelementptr inbounds nuw i8, ptr %.04, i64 1
  %8 = load i8, ptr %.04, align 1, !tbaa !29
  %9 = zext i8 %8 to i32
  %10 = load i32, ptr %5, align 8, !tbaa !38
  %11 = lshr i32 %9, %10
  %12 = trunc nuw i32 %11 to i8
  %13 = getelementptr inbounds nuw i8, ptr %.03, i64 1
  store i8 %12, ptr %.03, align 1, !tbaa !29
  %14 = add i32 %.0, -1
  %.not = icmp eq i32 %14, 0
  br i1 %.not, label %15, label %6, !llvm.loop !47

15:                                               ; preds = %6
  ret void
}